target datalayout = "e-m:e-p270:32:32-p271:32:32-p272:64:64-i64:64-i128:128-f80:128-n8:16:32:64-S128"
target triple = "x86_64-pc-linux-gnu"

%struct.lzma_mf_s = type { ptr, i32, i32, i32, i32, i32, i32, i32, i32, i32, ptr, ptr, ptr, ptr, i32, i32, i32, i32, i32, i32, i32, i32, i32 }
%struct.lzma_next_coder_s = type { ptr, i64, i64, ptr, ptr, ptr, ptr, ptr, ptr, ptr }
%struct.lzma_coder = type { %struct.lzma_lz_encoder, %struct.lzma_mf_s, %struct.lzma_next_coder_s }
%struct.lzma_lz_encoder = type { ptr, ptr, ptr, ptr, ptr }

; Function Attrs: nounwind uwtable
define internal i32 @lz_encoder_set_out_limit(ptr noundef %0, ptr noundef %1, i64 noundef %2) #0 {
  %4 = alloca i32, align 4
  %5 = alloca ptr, align 8
  %6 = alloca ptr, align 8
  %7 = alloca i64, align 8
  %8 = alloca ptr, align 8
  %9 = alloca i32, align 4
  store ptr %0, ptr %5, align 8, !tbaa !4
  store ptr %1, ptr %6, align 8, !tbaa !73
  store i64 %2, ptr %7, align 8, !tbaa !68
  call void @llvm.lifetime.start.p0(i64 8, ptr %8) #7
  %10 = load ptr, ptr %5, align 8, !tbaa !4
  store ptr %10, ptr %8, align 8, !tbaa !4
  %11 = load ptr, ptr %8, align 8, !tbaa !4
  %12 = getelementptr inbounds nuw %struct.lzma_coder, ptr %11, i32 0, i32 2
  %13 = getelementptr inbounds nuw %struct.lzma_next_coder_s, ptr %12, i32 0, i32 3
  %14 = load ptr, ptr %13, align 8, !tbaa !80
  %15 = icmp eq ptr %14, null
  br i1 %15, label %16, label %34

16:                                               ; preds = %3
  %17 = load ptr, ptr %8, align 8, !tbaa !4
  %18 = getelementptr inbounds nuw %struct.lzma_coder, ptr %17, i32 0, i32 0
  %19 = getelementptr inbounds nuw %struct.lzma_lz_encoder, ptr %18, i32 0, i32 4
  %20 = load ptr, ptr %19, align 8, !tbaa !59
  %21 = icmp ne ptr %20, null
  br i1 %21, label %22, label %34

22:                                               ; preds = %16
  %23 = load ptr, ptr %8, align 8, !tbaa !4
  %24 = getelementptr inbounds nuw %struct.lzma_coder, ptr %23, i32 0, i32 0
  %25 = getelementptr inbounds nuw %struct.lzma_lz_encoder, ptr %24, i32 0, i32 4
  %26 = load ptr, ptr %25, align 8, !tbaa !59
  %27 = load ptr, ptr %8, align 8, !tbaa !4
  %28 = getelementptr inbounds nuw %struct.lzma_coder, ptr %27, i32 0, i32 0
  %29 = getelementptr inbounds nuw %struct.lzma_lz_encoder, ptr %28, i32 0, i32 0
  %30 = load ptr, ptr %29, align 8, !tbaa !53
  %31 = load ptr, ptr %6, align 8, !tbaa !73
  %32 = load i64, ptr %7, align 8, !tbaa !68
  %33 = call i32 %26(ptr noundef %30, ptr noundef %31, i64 noundef %32)
  store i32 %33, ptr %4, align 4
  store i32 1, ptr %9, align 4
  br label %35

34:                                               ; preds = %16, %3
  store i32 8, ptr %4, align 4
  store i32 1, ptr %9, align 4
  br label %35

35:                                               ; preds = %34, %22
  call void @llvm.lifetime.end.p0(i64 8, ptr %8) #7
  %36 = load i32, ptr %4, align 4
  ret i32 %36
}