; Function Attrs: nounwind uwtable
define internal i32 @lz_encoder_set_out_limit(ptr noundef readonly captures(none) %0, ptr noundef %1, i64 noundef %2) #0 {
  %4 = getelementptr inbounds nuw i8, ptr %0, i64 184
  %5 = load ptr, ptr %4, align 8, !tbaa !64
  %6 = icmp eq ptr %5, null
  br i1 %6, label %7, label %13

7:                                                ; preds = %3
  %8 = getelementptr inbounds nuw i8, ptr %0, i64 32
  %9 = load ptr, ptr %8, align 8, !tbaa !77
  %.not = icmp eq ptr %9, null
  br i1 %.not, label %13, label %10

10:                                               ; preds = %7
  %11 = load ptr, ptr %0, align 8, !tbaa !70
  %12 = tail call i32 %9(ptr noundef %11, ptr noundef %1, i64 noundef %2) #7
  br label %13

13:                                               ; preds = %3, %7, %10
  %.0 = phi i32 [ %12, %10 ], [ 8, %7 ], [ 8, %3 ]
  ret i32 %.0
}